target datalayout = "e-m:e-p270:32:32-p271:32:32-p272:64:64-i64:64-i128:128-f80:128-n8:16:32:64-S128"
target triple = "x86_64-pc-linux-gnu"

%struct.pg_prng_state = type { i64, i64 }
%struct.ReservoirStateData = type { double, %struct.pg_prng_state }

@pg_global_prng_state = external global %struct.pg_prng_state, align 8

; Function Attrs: nounwind uwtable
define dso_local double @sampler_random_fract(ptr noundef %0) #0 {
  %2 = alloca ptr, align 8
  %3 = alloca double, align 8
  store ptr %0, ptr %2, align 8
  call void @llvm.lifetime.start.p0(i64 8, ptr %3) #6
  br label %4

4:                                                ; preds = %7, %1
  %5 = load ptr, ptr %2, align 8
  %6 = call double @pg_prng_double(ptr noundef %5)
  store double %6, ptr %3, align 8
  br label %7

7:                                                ; preds = %4
  %8 = load double, ptr %3, align 8
  %9 = fcmp oeq double %8, 0.000000e+00
  %10 = zext i1 %9 to i32
  %11 = icmp ne i32 %10, 0
  %12 = zext i1 %11 to i32
  %13 = sext i32 %12 to i64
  %14 = call i64 @llvm.expect.i64(i64 %13, i64 0)
  %15 = icmp ne i64 %14, 0
  br i1 %15, label %4, label %16, !llvm.loop !6

16:                                               ; preds = %7
  %17 = load double, ptr %3, align 8
  call void @llvm.lifetime.end.p0(i64 8, ptr %3) #6
  ret double %17
}

; Function Attrs: nounwind uwtable
define dso_local void @sampler_random_init_state(i32 noundef %0, ptr noundef %1) #0 {
  %3 = alloca i32, align 4
  %4 = alloca ptr, align 8
  store i32 %0, ptr %3, align 4
  store ptr %1, ptr %4, align 8
  %5 = load ptr, ptr %4, align 8
  %6 = load i32, ptr %3, align 4
  %7 = zext i32 %6 to i64
  call void @pg_prng_seed(ptr noundef %5, i64 noundef %7)
  ret void
}

; Function Attrs: nounwind uwtable
define dso_local void @reservoir_init_selection_state(ptr noundef %0, i32 noundef %1) #0 {
  %3 = alloca ptr, align 8
  %4 = alloca i32, align 4
  store ptr %0, ptr %3, align 8
  store i32 %1, ptr %4, align 4
  %5 = call i32 @pg_prng_uint32(ptr noundef @pg_global_prng_state)
  %6 = load ptr, ptr %3, align 8
  %7 = getelementptr inbounds nuw %struct.ReservoirStateData, ptr %6, i32 0, i32 1
  call void @sampler_random_init_state(i32 noundef %5, ptr noundef %7)
  %8 = load ptr, ptr %3, align 8
  %9 = getelementptr inbounds nuw %struct.ReservoirStateData, ptr %8, i32 0, i32 1
  %10 = call double @sampler_random_fract(ptr noundef %9)
  %11 = call double @log(double noundef %10) #6
  %12 = fneg double %11
  %13 = load i32, ptr %4, align 4
  %14 = sitofp i32 %13 to double
  %15 = fdiv double %12, %14
  %16 = call double @exp(double noundef %15) #6
  %17 = load ptr, ptr %3, align 8
  %18 = getelementptr inbounds nuw %struct.ReservoirStateData, ptr %17, i32 0, i32 0
  store double %16, ptr %18, align 8
  ret void
}