; Function Attrs: nounwind uwtable
define dso_local void @reservoir_init_selection_state(ptr noundef %0, i32 noundef %1) local_unnamed_addr #0 {
  %3 = tail call i32 @pg_prng_uint32(ptr noundef nonnull @pg_global_prng_state) #6
  %4 = getelementptr inbounds nuw i8, ptr %0, i64 8
  %5 = zext i32 %3 to i64
  tail call void @pg_prng_seed(ptr noundef nonnull %4, i64 noundef %5) #6
  br label %6

6:                                                ; preds = %6, %2
  %7 = tail call double @pg_prng_double(ptr noundef nonnull %4) #6
  %8 = fcmp oeq double %7, 0.000000e+00
  br i1 %8, label %6, label %sampler_random_fract.exit, !prof !4, !llvm.loop !5

sampler_random_fract.exit:                        ; preds = %6
  %9 = tail call double @log(double noundef %7) #6
  %10 = fneg double %9
  %11 = sitofp i32 %1 to double
  %12 = fdiv double %10, %11
  %13 = tail call double @exp(double noundef %12) #6
  store double %13, ptr %0, align 8
  ret void
}